---
triple:          'x86_64-apple-darwin'
binary-path:     '/Users/craitbla/Documents/for_github/Algorithms/C++/leetcode/3.Longest_Substring_Without_Repeating_Characters'
relocations:
  - { offset: 0x1A, size: 0x8, addend: 0x0, symName: __ZSt23__is_constant_evaluatedv, symObjAddr: 0x0, symBinAddr: 0x100001138, symSize: 0xB }
  - { offset: 0x22, size: 0x8, addend: 0x0, symName: __ZSt19piecewise_construct, symObjAddr: 0x2604, symBinAddr: 0x100003B48, symSize: 0x0 }
  - { offset: 0x2992, size: 0x8, addend: 0x0, symName: __ZSt19piecewise_construct, symObjAddr: 0x2604, symBinAddr: 0x100003B48, symSize: 0x0 }
  - { offset: 0x6F17, size: 0x8, addend: 0x0, symName: __ZStL8__ioinit, symObjAddr: 0x3F0F9, symBinAddr: 0x1000070BA, symSize: 0x0 }
  - { offset: 0xCFF2, size: 0x8, addend: 0x0, symName: __ZNSt8__detail30__integer_to_chars_is_unsignedIjEE, symObjAddr: 0x2605, symBinAddr: 0x100003B49, symSize: 0x0 }
  - { offset: 0xD00C, size: 0x8, addend: 0x0, symName: __ZNSt8__detail30__integer_to_chars_is_unsignedImEE, symObjAddr: 0x2606, symBinAddr: 0x100003B4A, symSize: 0x0 }
  - { offset: 0xD026, size: 0x8, addend: 0x0, symName: __ZNSt8__detail30__integer_to_chars_is_unsignedIyEE, symObjAddr: 0x2607, symBinAddr: 0x100003B4B, symSize: 0x0 }
  - { offset: 0xD034, size: 0x8, addend: 0x0, symName: __GLOBAL__sub_I_3.Longest_Substring_Without_Repeating_Characters.cpp, symObjAddr: 0x25F9, symBinAddr: 0x100003731, symSize: 0xB }
  - { offset: 0xD03C, size: 0x8, addend: 0x0, symName: __ZSt19piecewise_construct, symObjAddr: 0x2604, symBinAddr: 0x100003B48, symSize: 0x0 }
  - { offset: 0xD04E, size: 0x8, addend: 0x0, symName: __Z41__static_initialization_and_destruction_0v, symObjAddr: 0x25C0, symBinAddr: 0x1000036F8, symSize: 0x39 }
  - { offset: 0xD056, size: 0x8, addend: 0x0, symName: __GLOBAL__sub_I_3.Longest_Substring_Without_Repeating_Characters.cpp, symObjAddr: 0x25F9, symBinAddr: 0x100003731, symSize: 0xB }
  - { offset: 0xD06B, size: 0x8, addend: 0x0, symName: __ZNSt10_Head_baseILm0ERKcLb0EE7_M_headERS2_, symObjAddr: 0x25AF, symBinAddr: 0x1000036E7, symSize: 0x11 }
  - { offset: 0xD073, size: 0x8, addend: 0x0, symName: __Z41__static_initialization_and_destruction_0v, symObjAddr: 0x25C0, symBinAddr: 0x1000036F8, symSize: 0x39 }
  - { offset: 0xD09C, size: 0x8, addend: 0x0, symName: __ZNSt11_Tuple_implILm0EJRKcEE7_M_headERS2_, symObjAddr: 0x2595, symBinAddr: 0x1000036CD, symSize: 0x1A }
  - { offset: 0xD0A4, size: 0x8, addend: 0x0, symName: __ZNSt10_Head_baseILm0ERKcLb0EE7_M_headERS2_, symObjAddr: 0x25AF, symBinAddr: 0x1000036E7, symSize: 0x11 }
  - { offset: 0xD0F4, size: 0x8, addend: 0x0, symName: __ZSt12__get_helperILm0ERKcJEERT0_RSt11_Tuple_implIXT_EJS2_DpT1_EE, symObjAddr: 0x257B, symBinAddr: 0x1000036B3, symSize: 0x1A }
  - { offset: 0xD0FC, size: 0x8, addend: 0x0, symName: __ZNSt11_Tuple_implILm0EJRKcEE7_M_headERS2_, symObjAddr: 0x2595, symBinAddr: 0x1000036CD, symSize: 0x1A }
  - { offset: 0xD146, size: 0x8, addend: 0x0, symName: __ZNSt15__new_allocatorIPNSt8__detail15_Hash_node_baseEE8allocateEmPKv, symObjAddr: 0x2514, symBinAddr: 0x10000364C, symSize: 0x67 }
  - { offset: 0xD14E, size: 0x8, addend: 0x0, symName: __ZSt12__get_helperILm0ERKcJEERT0_RSt11_Tuple_implIXT_EJS2_DpT1_EE, symObjAddr: 0x257B, symBinAddr: 0x1000036B3, symSize: 0x1A }
  - { offset: 0xD1D8, size: 0x8, addend: 0x0, symName: __ZSt7forwardIRKcEOT_RNSt16remove_referenceIS2_E4typeE, symObjAddr: 0x2505, symBinAddr: 0x10000363D, symSize: 0xF }
  - { offset: 0xD22D, size: 0x8, addend: 0x0, symName: __ZSt3getILm0EJRKcEERNSt13tuple_elementIXT_ESt5tupleIJDpT0_EEE4typeERS6_, symObjAddr: 0x24EB, symBinAddr: 0x100003623, symSize: 0x1A }
  - { offset: 0xD235, size: 0x8, addend: 0x0, symName: __ZSt7forwardIRKcEOT_RNSt16remove_referenceIS2_E4typeE, symObjAddr: 0x2505, symBinAddr: 0x10000363D, symSize: 0xF }
  - { offset: 0xD288, size: 0x8, addend: 0x0, symName: __ZSt12__to_addressIPNSt8__detail15_Hash_node_baseEEPT_S4_, symObjAddr: 0x24DD, symBinAddr: 0x100003615, symSize: 0xE }
  - { offset: 0xD290, size: 0x8, addend: 0x0, symName: __ZSt3getILm0EJRKcEERNSt13tuple_elementIXT_ESt5tupleIJDpT0_EEE4typeERS6_, symObjAddr: 0x24EB, symBinAddr: 0x100003623, symSize: 0x1A }
  - { offset: 0xD373, size: 0x8, addend: 0x0, symName: __ZNSt4pairIKcjEC1IJRS0_EJLm0EEJEJEEERSt5tupleIJDpT_EERS4_IJDpT1_EESt12_Index_tupleIJXspT0_EEESD_IJXspT2_EEE, symObjAddr: 0x249E, symBinAddr: 0x1000035D6, symSize: 0x3F }
  - { offset: 0xD37B, size: 0x8, addend: 0x0, symName: __ZSt12__to_addressIPNSt8__detail15_Hash_node_baseEEPT_S4_, symObjAddr: 0x24DD, symBinAddr: 0x100003615, symSize: 0xE }
  - { offset: 0xD408, size: 0x8, addend: 0x0, symName: __ZSt11__addressofINSt8__detail10_Hash_nodeISt4pairIKcjELb0EEEEPT_RS6_, symObjAddr: 0x2490, symBinAddr: 0x1000035C8, symSize: 0xE }
  - { offset: 0xD410, size: 0x8, addend: 0x0, symName: __ZNSt4pairIKcjEC1IJRS0_EJLm0EEJEJEEERSt5tupleIJDpT_EERS4_IJDpT1_EESt12_Index_tupleIJXspT0_EEESD_IJXspT2_EEE, symObjAddr: 0x249E, symBinAddr: 0x1000035D6, symSize: 0x3F }
  - { offset: 0xD446, size: 0x8, addend: 0x0, symName: __ZNSt8__detail16_Hashtable_allocISaINS_10_Hash_nodeISt4pairIKcjELb0EEEEE19_M_allocate_bucketsEm, symObjAddr: 0x23DA, symBinAddr: 0x100003512, symSize: 0xB6 }
  - { offset: 0xD44E, size: 0x8, addend: 0x0, symName: __ZSt11__addressofINSt8__detail10_Hash_nodeISt4pairIKcjELb0EEEEPT_RS6_, symObjAddr: 0x2490, symBinAddr: 0x1000035C8, symSize: 0xE }
  - { offset: 0xD5EF, size: 0x8, addend: 0x0, symName: __ZNSt4pairIKcjEC1IJRS0_EJEEESt21piecewise_construct_tSt5tupleIJDpT_EES5_IJDpT0_EE, symObjAddr: 0x23B0, symBinAddr: 0x1000034E8, symSize: 0x2A }
  - { offset: 0xD5F7, size: 0x8, addend: 0x0, symName: __ZNSt8__detail16_Hashtable_allocISaINS_10_Hash_nodeISt4pairIKcjELb0EEEEE19_M_allocate_bucketsEm, symObjAddr: 0x23DA, symBinAddr: 0x100003512, symSize: 0xB6 }
  - { offset: 0xD680, size: 0x8, addend: 0x0, symName: __ZNSt11_Tuple_implILm0EJRKcEEC2EOS2_, symObjAddr: 0x2392, symBinAddr: 0x1000034CA, symSize: 0x1E }
  - { offset: 0xD6D7, size: 0x8, addend: 0x0, symName: __ZNK9__gnu_cxx16__aligned_bufferISt4pairIKcjEE7_M_addrEv, symObjAddr: 0x2384, symBinAddr: 0x1000034BC, symSize: 0xE }
  - { offset: 0xD6DF, size: 0x8, addend: 0x0, symName: __ZNSt11_Tuple_implILm0EJRKcEEC2EOS2_, symObjAddr: 0x2392, symBinAddr: 0x1000034CA, symSize: 0x1E }
  - { offset: 0xD712, size: 0x8, addend: 0x0, symName: __ZSt11__addressofIPNSt8__detail15_Hash_node_baseEEPT_RS3_, symObjAddr: 0x2376, symBinAddr: 0x1000034AE, symSize: 0xE }
  - { offset: 0xD71A, size: 0x8, addend: 0x0, symName: __ZNK9__gnu_cxx16__aligned_bufferISt4pairIKcjEE7_M_addrEv, symObjAddr: 0x2384, symBinAddr: 0x1000034BC, symSize: 0xE }
  - { offset: 0xD75C, size: 0x8, addend: 0x0, symName: __ZSt9addressofINSt8__detail10_Hash_nodeISt4pairIKcjELb0EEEEPT_RS6_, symObjAddr: 0x235C, symBinAddr: 0x100003494, symSize: 0x1A }
  - { offset: 0xD764, size: 0x8, addend: 0x0, symName: __ZSt11__addressofIPNSt8__detail15_Hash_node_baseEEPT_RS3_, symObjAddr: 0x2376, symBinAddr: 0x1000034AE, symSize: 0xE }
  - { offset: 0xD79A, size: 0x8, addend: 0x0, symName: __ZNSt10_HashtableIcSt4pairIKcjESaIS2_ENSt8__detail10_Select1stESt8equal_toIcESt4hashIcENS4_18_Mod_range_hashingENS4_20_Default_ranged_hashENS4_20_Prime_rehash_policyENS4_17_Hashtable_traitsILb0ELb0ELb1EEEE19_M_allocate_bucketsEm, symObjAddr: 0x2310, symBinAddr: 0x100003448, symSize: 0x4C }
  - { offset: 0xD7A2, size: 0x8, addend: 0x0, symName: __ZSt9addressofINSt8__detail10_Hash_nodeISt4pairIKcjELb0EEEEPT_RS6_, symObjAddr: 0x235C, symBinAddr: 0x100003494, symSize: 0x1A }
  - { offset: 0xD7DD, size: 0x8, addend: 0x0, symName: __ZNSt15__new_allocatorINSt8__detail10_Hash_nodeISt4pairIKcjELb0EEEE10deallocateEPS5_m, symObjAddr: 0x22E0, symBinAddr: 0x100003418, symSize: 0x30 }
  - { offset: 0xD7E5, size: 0x8, addend: 0x0, symName: __ZNSt10_HashtableIcSt4pairIKcjESaIS2_ENSt8__detail10_Select1stESt8equal_toIcESt4hashIcENS4_18_Mod_range_hashingENS4_20_Default_ranged_hashENS4_20_Prime_rehash_policyENS4_17_Hashtable_traitsILb0ELb0ELb1EEEE19_M_allocate_bucketsEm, symObjAddr: 0x2310, symBinAddr: 0x100003448, symSize: 0x4C }
  - { offset: 0xD8E3, size: 0x8, addend: 0x0, symName: __ZNSt5tupleIJRKcEEC1EOS2_, symObjAddr: 0x22BA, symBinAddr: 0x1000033F2, symSize: 0x26 }
  - { offset: 0xD8EB, size: 0x8, addend: 0x0, symName: __ZNSt15__new_allocatorINSt8__detail10_Hash_nodeISt4pairIKcjELb0EEEE10deallocateEPS5_m, symObjAddr: 0x22E0, symBinAddr: 0x100003418, symSize: 0x30 }
  - { offset: 0xD919, size: 0x8, addend: 0x0, symName: __ZNSt15__new_allocatorINSt8__detail10_Hash_nodeISt4pairIKcjELb0EEEE8allocateEmPKv, symObjAddr: 0x2252, symBinAddr: 0x10000338A, symSize: 0x68 }
  - { offset: 0xD99F, size: 0x8, addend: 0x0, symName: __ZNSt8__detail15_Hashtable_baseIcSt4pairIKcjENS_10_Select1stESt8equal_toIcESt4hashIcENS_18_Mod_range_hashingENS_20_Default_ranged_hashENS_17_Hashtable_traitsILb0ELb0ELb1EEEE9_S_equalsEmRKNS_21_Hash_node_code_cacheILb0EEE, symObjAddr: 0x223E, symBinAddr: 0x100003376, symSize: 0x14 }
  - { offset: 0xD9D5, size: 0x8, addend: 0x0, symName: __ZNK9__gnu_cxx16__aligned_bufferISt4pairIKcjEE6_M_ptrEv, symObjAddr: 0x2224, symBinAddr: 0x10000335C, symSize: 0x1A }
  - { offset: 0xD9DD, size: 0x8, addend: 0x0, symName: __ZNSt8__detail15_Hashtable_baseIcSt4pairIKcjENS_10_Select1stESt8equal_toIcESt4hashIcENS_18_Mod_range_hashingENS_20_Default_ranged_hashENS_17_Hashtable_traitsILb0ELb0ELb1EEEE9_S_equalsEmRKNS_21_Hash_node_code_cacheILb0EEE, symObjAddr: 0x223E, symBinAddr: 0x100003376, symSize: 0x14 }
  - { offset: 0xDA04, size: 0x8, addend: 0x0, symName: __ZNKSt8__detail21_Hashtable_ebo_helperILi0ESt8equal_toIcELb1EE7_M_cgetEv, symObjAddr: 0x2216, symBinAddr: 0x10000334E, symSize: 0xE }
  - { offset: 0xDA0C, size: 0x8, addend: 0x0, symName: __ZNK9__gnu_cxx16__aligned_bufferISt4pairIKcjEE6_M_ptrEv, symObjAddr: 0x2224, symBinAddr: 0x10000335C, symSize: 0x1A }
  - { offset: 0xDA33, size: 0x8, addend: 0x0, symName: __ZNSt15__new_allocatorIPNSt8__detail15_Hash_node_baseEE10deallocateEPS2_m, symObjAddr: 0x21E4, symBinAddr: 0x10000331C, symSize: 0x32 }
  - { offset: 0xDAB3, size: 0x8, addend: 0x0, symName: __ZNSt15__new_allocatorIPNSt8__detail15_Hash_node_baseEED2Ev, symObjAddr: 0x21D8, symBinAddr: 0x100003310, symSize: 0xC }
  - { offset: 0xDB02, size: 0x8, addend: 0x0, symName: __ZSt9addressofIPNSt8__detail15_Hash_node_baseEEPT_RS3_, symObjAddr: 0x21BE, symBinAddr: 0x1000032F6, symSize: 0x1A }
  - { offset: 0xDB0A, size: 0x8, addend: 0x0, symName: __ZNSt15__new_allocatorIPNSt8__detail15_Hash_node_baseEED2Ev, symObjAddr: 0x21D8, symBinAddr: 0x100003310, symSize: 0xC }
  - { offset: 0xDB40, size: 0x8, addend: 0x0, symName: __ZNSt19__ptr_traits_ptr_toIPNSt8__detail10_Hash_nodeISt4pairIKcjELb0EEES5_Lb0EE10pointer_toERS5_, symObjAddr: 0x21A4, symBinAddr: 0x1000032DC, symSize: 0x1A }
  - { offset: 0xDB48, size: 0x8, addend: 0x0, symName: __ZSt9addressofIPNSt8__detail15_Hash_node_baseEEPT_RS3_, symObjAddr: 0x21BE, symBinAddr: 0x1000032F6, symSize: 0x1A }
  - { offset: 0xDBA7, size: 0x8, addend: 0x0, symName: __ZNSt8__detail21_Hashtable_ebo_helperILi0ESaINS_10_Hash_nodeISt4pairIKcjELb0EEEELb1EE6_M_getEv, symObjAddr: 0x2196, symBinAddr: 0x1000032CE, symSize: 0xE }
  - { offset: 0xDBAF, size: 0x8, addend: 0x0, symName: __ZNSt19__ptr_traits_ptr_toIPNSt8__detail10_Hash_nodeISt4pairIKcjELb0EEES5_Lb0EE10pointer_toERS5_, symObjAddr: 0x21A4, symBinAddr: 0x1000032DC, symSize: 0x1A }
  - { offset: 0xDBD6, size: 0x8, addend: 0x0, symName: __ZNSt10_HashtableIcSt4pairIKcjESaIS2_ENSt8__detail10_Select1stESt8equal_toIcESt4hashIcENS4_18_Mod_range_hashingENS4_20_Default_ranged_hashENS4_20_Prime_rehash_policyENS4_17_Hashtable_traitsILb0ELb0ELb1EEEE22_M_remove_bucket_beginEmPNS4_10_Hash_nodeIS2_Lb0EEEm, symObjAddr: 0x20F6, symBinAddr: 0x10000322E, symSize: 0xA0 }
  - { offset: 0xDBDE, size: 0x8, addend: 0x0, symName: __ZNSt8__detail21_Hashtable_ebo_helperILi0ESaINS_10_Hash_nodeISt4pairIKcjELb0EEEELb1EE6_M_getEv, symObjAddr: 0x2196, symBinAddr: 0x1000032CE, symSize: 0xE }
  - { offset: 0xDC41, size: 0x8, addend: 0x0, symName: __ZNKSt8__detail15_Hash_code_baseIcSt4pairIKcjENS_10_Select1stESt4hashIcENS_18_Mod_range_hashingENS_20_Default_ranged_hashELb0EE15_M_bucket_indexERKNS_16_Hash_node_valueIS3_Lb0EEEm, symObjAddr: 0x209A, symBinAddr: 0x1000031D2, symSize: 0x5C }
  - { offset: 0xDC49, size: 0x8, addend: 0x0, symName: __ZNSt10_HashtableIcSt4pairIKcjESaIS2_ENSt8__detail10_Select1stESt8equal_toIcESt4hashIcENS4_18_Mod_range_hashingENS4_20_Default_ranged_hashENS4_20_Prime_rehash_policyENS4_17_Hashtable_traitsILb0ELb0ELb1EEEE22_M_remove_bucket_beginEmPNS4_10_Hash_nodeIS2_Lb0EEEm, symObjAddr: 0x20F6, symBinAddr: 0x10000322E, symSize: 0xA0 }
  - { offset: 0xDC98, size: 0x8, addend: 0x0, symName: __ZNSt10_HashtableIcSt4pairIKcjESaIS2_ENSt8__detail10_Select1stESt8equal_toIcESt4hashIcENS4_18_Mod_range_hashingENS4_20_Default_ranged_hashENS4_20_Prime_rehash_policyENS4_17_Hashtable_traitsILb0ELb0ELb1EEEE13_M_rehash_auxEmSt17integral_constantIbLb1EE, symObjAddr: 0x1F20, symBinAddr: 0x100003058, symSize: 0x17A }
  - { offset: 0xDE25, size: 0x8, addend: 0x0, symName: __ZSt12__to_addressINSt8__detail10_Hash_nodeISt4pairIKcjELb0EEEEPT_S7_, symObjAddr: 0x1F12, symBinAddr: 0x10000304A, symSize: 0xE }
  - { offset: 0xDE2D, size: 0x8, addend: 0x0, symName: __ZNSt10_HashtableIcSt4pairIKcjESaIS2_ENSt8__detail10_Select1stESt8equal_toIcESt4hashIcENS4_18_Mod_range_hashingENS4_20_Default_ranged_hashENS4_20_Prime_rehash_policyENS4_17_Hashtable_traitsILb0ELb0ELb1EEEE13_M_rehash_auxEmSt17integral_constantIbLb1EE, symObjAddr: 0x1F20, symBinAddr: 0x100003058, symSize: 0x17A }
  - { offset: 0xDEBD, size: 0x8, addend: 0x0, symName: __ZNSt10_Head_baseILm0ERKcLb0EEC2ES1_, symObjAddr: 0x1EF8, symBinAddr: 0x100003030, symSize: 0x1A }
  - { offset: 0xDEC5, size: 0x8, addend: 0x0, symName: __ZSt12__to_addressINSt8__detail10_Hash_nodeISt4pairIKcjELb0EEEEPT_S7_, symObjAddr: 0x1F12, symBinAddr: 0x10000304A, symSize: 0xE }
  - { offset: 0xDEF3, size: 0x8, addend: 0x0, symName: __ZNKSt8__detail15_Hashtable_baseIcSt4pairIKcjENS_10_Select1stESt8equal_toIcESt4hashIcENS_18_Mod_range_hashingENS_20_Default_ranged_hashENS_17_Hashtable_traitsILb0ELb0ELb1EEEE9_M_equalsERS2_mRKNS_16_Hash_node_valueIS3_Lb0EEE, symObjAddr: 0x1EA0, symBinAddr: 0x100002FD8, symSize: 0x58 }
  - { offset: 0xDEFB, size: 0x8, addend: 0x0, symName: __ZNSt10_Head_baseILm0ERKcLb0EEC2ES1_, symObjAddr: 0x1EF8, symBinAddr: 0x100003030, symSize: 0x1A }
  - { offset: 0xDF5E, size: 0x8, addend: 0x0, symName: __ZNKSt8__detail21_Hashtable_ebo_helperILi1ESt4hashIcELb1EE7_M_cgetEv, symObjAddr: 0x1E92, symBinAddr: 0x100002FCA, symSize: 0xE }
  - { offset: 0xDF66, size: 0x8, addend: 0x0, symName: __ZNKSt8__detail15_Hashtable_baseIcSt4pairIKcjENS_10_Select1stESt8equal_toIcESt4hashIcENS_18_Mod_range_hashingENS_20_Default_ranged_hashENS_17_Hashtable_traitsILb0ELb0ELb1EEEE9_M_equalsERS2_mRKNS_16_Hash_node_valueIS3_Lb0EEE, symObjAddr: 0x1EA0, symBinAddr: 0x100002FD8, symSize: 0x58 }
  - { offset: 0xDF99, size: 0x8, addend: 0x0, symName: __ZSt7forwardIRKSt4pairIKcjEEOT_RNSt16remove_referenceIS5_E4typeE, symObjAddr: 0x1E84, symBinAddr: 0x100002FBC, symSize: 0xE }
  - { offset: 0xDFA1, size: 0x8, addend: 0x0, symName: __ZNKSt8__detail21_Hashtable_ebo_helperILi1ESt4hashIcELb1EE7_M_cgetEv, symObjAddr: 0x1E92, symBinAddr: 0x100002FCA, symSize: 0xE }
  - { offset: 0xDFE1, size: 0x8, addend: 0x0, symName: __ZNKSt8__detail21_Hash_node_value_baseISt4pairIKcjEE9_M_valptrEv, symObjAddr: 0x1E6A, symBinAddr: 0x100002FA2, symSize: 0x1A }
  - { offset: 0xDFE9, size: 0x8, addend: 0x0, symName: __ZSt7forwardIRKSt4pairIKcjEEOT_RNSt16remove_referenceIS5_E4typeE, symObjAddr: 0x1E84, symBinAddr: 0x100002FBC, symSize: 0xE }
  - { offset: 0xE010, size: 0x8, addend: 0x0, symName: __ZNKSt8equal_toIcEclERKcS2_, symObjAddr: 0x1E44, symBinAddr: 0x100002F7C, symSize: 0x26 }
  - { offset: 0xE067, size: 0x8, addend: 0x0, symName: __ZNKSt8__detail15_Hashtable_baseIcSt4pairIKcjENS_10_Select1stESt8equal_toIcESt4hashIcENS_18_Mod_range_hashingENS_20_Default_ranged_hashENS_17_Hashtable_traitsILb0ELb0ELb1EEEE5_M_eqEv, symObjAddr: 0x1E2A, symBinAddr: 0x100002F62, symSize: 0x1A }
  - { offset: 0xE06F, size: 0x8, addend: 0x0, symName: __ZNKSt8equal_toIcEclERKcS2_, symObjAddr: 0x1E44, symBinAddr: 0x100002F7C, symSize: 0x26 }
  - { offset: 0xE096, size: 0x8, addend: 0x0, symName: __ZNSt8__detail22_Hashtable_hash_traitsISt4hashIcEE22__small_size_thresholdEv, symObjAddr: 0x1E1F, symBinAddr: 0x100002F57, symSize: 0xB }
  - { offset: 0xE09E, size: 0x8, addend: 0x0, symName: __ZNKSt8__detail15_Hashtable_baseIcSt4pairIKcjENS_10_Select1stESt8equal_toIcESt4hashIcENS_18_Mod_range_hashingENS_20_Default_ranged_hashENS_17_Hashtable_traitsILb0ELb0ELb1EEEE5_M_eqEv, symObjAddr: 0x1E2A, symBinAddr: 0x100002F62, symSize: 0x1A }
  - { offset: 0xE147, size: 0x8, addend: 0x0, symName: __ZNSt19__ptr_traits_ptr_toIPPNSt8__detail15_Hash_node_baseES2_Lb0EE10pointer_toERS2_, symObjAddr: 0x1E05, symBinAddr: 0x100002F3D, symSize: 0x1A }
  - { offset: 0xE14F, size: 0x8, addend: 0x0, symName: __ZNSt8__detail22_Hashtable_hash_traitsISt4hashIcEE22__small_size_thresholdEv, symObjAddr: 0x1E1F, symBinAddr: 0x100002F57, symSize: 0xB }
  - { offset: 0xE178, size: 0x8, addend: 0x0, symName: __ZNSt8__detail16_Hashtable_allocISaINS_10_Hash_nodeISt4pairIKcjELb0EEEEE22_M_deallocate_node_ptrEPS5_, symObjAddr: 0x1DAA, symBinAddr: 0x100002EE2, symSize: 0x5B }
  - { offset: 0xE180, size: 0x8, addend: 0x0, symName: __ZNSt19__ptr_traits_ptr_toIPPNSt8__detail15_Hash_node_baseES2_Lb0EE10pointer_toERS2_, symObjAddr: 0x1E05, symBinAddr: 0x100002F3D, symSize: 0x1A }
  - { offset: 0xE247, size: 0x8, addend: 0x0, symName: __ZNSt8__detail16_Hashtable_allocISaINS_10_Hash_nodeISt4pairIKcjELb0EEEEE17_M_node_allocatorEv, symObjAddr: 0x1D90, symBinAddr: 0x100002EC8, symSize: 0x1A }
  - { offset: 0xE24F, size: 0x8, addend: 0x0, symName: __ZNSt8__detail16_Hashtable_allocISaINS_10_Hash_nodeISt4pairIKcjELb0EEEEE22_M_deallocate_node_ptrEPS5_, symObjAddr: 0x1DAA, symBinAddr: 0x100002EE2, symSize: 0x5B }
  - { offset: 0xE27E, size: 0x8, addend: 0x0, symName: __ZN9__gnu_cxx16__aligned_bufferISt4pairIKcjEE7_M_addrEv, symObjAddr: 0x1D82, symBinAddr: 0x100002EBA, symSize: 0xE }
  - { offset: 0xE286, size: 0x8, addend: 0x0, symName: __ZNSt8__detail16_Hashtable_allocISaINS_10_Hash_nodeISt4pairIKcjELb0EEEEE17_M_node_allocatorEv, symObjAddr: 0x1D90, symBinAddr: 0x100002EC8, symSize: 0x1A }
  - { offset: 0xE2AD, size: 0x8, addend: 0x0, symName: __ZNSt10_HashtableIcSt4pairIKcjESaIS2_ENSt8__detail10_Select1stESt8equal_toIcESt4hashIcENS4_18_Mod_range_hashingENS4_20_Default_ranged_hashENS4_20_Prime_rehash_policyENS4_17_Hashtable_traitsILb0ELb0ELb1EEEE8_M_eraseEmPNS4_15_Hash_node_baseEPNS4_10_Hash_nodeIS2_Lb0EEE, symObjAddr: 0x1C46, symBinAddr: 0x100002D7E, symSize: 0x13C }
  - { offset: 0xE2B5, size: 0x8, addend: 0x0, symName: __ZN9__gnu_cxx16__aligned_bufferISt4pairIKcjEE7_M_addrEv, symObjAddr: 0x1D82, symBinAddr: 0x100002EBA, symSize: 0xE }
  - { offset: 0xE354, size: 0x8, addend: 0x0, symName: __ZNKSt10_HashtableIcSt4pairIKcjESaIS2_ENSt8__detail10_Select1stESt8equal_toIcESt4hashIcENS4_18_Mod_range_hashingENS4_20_Default_ranged_hashENS4_20_Prime_rehash_policyENS4_17_Hashtable_traitsILb0ELb0ELb1EEEE15_M_bucket_indexERKNS4_16_Hash_node_valueIS2_Lb0EEE, symObjAddr: 0x1C18, symBinAddr: 0x100002D50, symSize: 0x2E }
  - { offset: 0xE397, size: 0x8, addend: 0x0, symName: __ZNSt10_HashtableIcSt4pairIKcjESaIS2_ENSt8__detail10_Select1stESt8equal_toIcESt4hashIcENS4_18_Mod_range_hashingENS4_20_Default_ranged_hashENS4_20_Prime_rehash_policyENS4_17_Hashtable_traitsILb0ELb0ELb1EEEE19_M_find_before_nodeERS1_, symObjAddr: 0x1B90, symBinAddr: 0x100002CC8, symSize: 0x88 }
  - { offset: 0xE414, size: 0x8, addend: 0x0, symName: __ZNSt10_HashtableIcSt4pairIKcjESaIS2_ENSt8__detail10_Select1stESt8equal_toIcESt4hashIcENS4_18_Mod_range_hashingENS4_20_Default_ranged_hashENS4_20_Prime_rehash_policyENS4_17_Hashtable_traitsILb0ELb0ELb1EEEE22_M_insert_bucket_beginEmPNS4_10_Hash_nodeIS2_Lb0EEE, symObjAddr: 0x1AA0, symBinAddr: 0x100002BD8, symSize: 0xF0 }
  - { offset: 0xE41C, size: 0x8, addend: 0x0, symName: __ZNSt10_HashtableIcSt4pairIKcjESaIS2_ENSt8__detail10_Select1stESt8equal_toIcESt4hashIcENS4_18_Mod_range_hashingENS4_20_Default_ranged_hashENS4_20_Prime_rehash_policyENS4_17_Hashtable_traitsILb0ELb0ELb1EEEE19_M_find_before_nodeERS1_, symObjAddr: 0x1B90, symBinAddr: 0x100002CC8, symSize: 0x88 }
  - { offset: 0xE46B, size: 0x8, addend: 0x0, symName: __ZNKSt8__detail15_Hash_code_baseIcSt4pairIKcjENS_10_Select1stESt4hashIcENS_18_Mod_range_hashingENS_20_Default_ranged_hashELb0EE13_M_store_codeERNS_21_Hash_node_code_cacheILb0EEEm, symObjAddr: 0x1A8C, symBinAddr: 0x100002BC4, symSize: 0x14 }
  - { offset: 0xE4B2, size: 0x8, addend: 0x0, symName: __ZNSt10_HashtableIcSt4pairIKcjESaIS2_ENSt8__detail10_Select1stESt8equal_toIcESt4hashIcENS4_18_Mod_range_hashingENS4_20_Default_ranged_hashENS4_20_Prime_rehash_policyENS4_17_Hashtable_traitsILb0ELb0ELb1EEEE9_M_rehashEmRKm, symObjAddr: 0x1A22, symBinAddr: 0x100002B5A, symSize: 0x6A }
  - { offset: 0xE4BA, size: 0x8, addend: 0x0, symName: __ZNKSt8__detail15_Hash_code_baseIcSt4pairIKcjENS_10_Select1stESt4hashIcENS_18_Mod_range_hashingENS_20_Default_ranged_hashELb0EE13_M_store_codeERNS_21_Hash_node_code_cacheILb0EEEm, symObjAddr: 0x1A8C, symBinAddr: 0x100002BC4, symSize: 0x14 }
  - { offset: 0xE509, size: 0x8, addend: 0x0, symName: __ZNSt8__detail16_Hashtable_allocISaINS_10_Hash_nodeISt4pairIKcjELb0EEEEE16_M_allocate_nodeIJRKSt21piecewise_construct_tSt5tupleIJRS3_EESC_IJEEEEEPS5_DpOT_, symObjAddr: 0x17D0, symBinAddr: 0x100002908, symSize: 0x252 }
  - { offset: 0xE511, size: 0x8, addend: 0x0, symName: __ZNSt10_HashtableIcSt4pairIKcjESaIS2_ENSt8__detail10_Select1stESt8equal_toIcESt4hashIcENS4_18_Mod_range_hashingENS4_20_Default_ranged_hashENS4_20_Prime_rehash_policyENS4_17_Hashtable_traitsILb0ELb0ELb1EEEE9_M_rehashEmRKm, symObjAddr: 0x1A22, symBinAddr: 0x100002B5A, symSize: 0x6A }
  - { offset: 0xE6FB, size: 0x8, addend: 0x0, symName: __ZNSt8__detail10_Hash_nodeISt4pairIKcjELb0EEC1Ev, symObjAddr: 0x17B4, symBinAddr: 0x1000028EC, symSize: 0x1C }
  - { offset: 0xE731, size: 0x8, addend: 0x0, symName: __ZSt7forwardISt5tupleIJEEEOT_RNSt16remove_referenceIS2_E4typeE, symObjAddr: 0x17A6, symBinAddr: 0x1000028DE, symSize: 0xE }
  - { offset: 0xE739, size: 0x8, addend: 0x0, symName: __ZNSt8__detail10_Hash_nodeISt4pairIKcjELb0EEC1Ev, symObjAddr: 0x17B4, symBinAddr: 0x1000028EC, symSize: 0x1C }
  - { offset: 0xE785, size: 0x8, addend: 0x0, symName: __ZSt7forwardISt5tupleIJRKcEEEOT_RNSt16remove_referenceIS4_E4typeE, symObjAddr: 0x1798, symBinAddr: 0x1000028D0, symSize: 0xE }
  - { offset: 0xE78D, size: 0x8, addend: 0x0, symName: __ZSt7forwardISt5tupleIJEEEOT_RNSt16remove_referenceIS2_E4typeE, symObjAddr: 0x17A6, symBinAddr: 0x1000028DE, symSize: 0xE }
  - { offset: 0xE7D9, size: 0x8, addend: 0x0, symName: __ZSt7forwardIRKSt21piecewise_construct_tEOT_RNSt16remove_referenceIS3_E4typeE, symObjAddr: 0x178A, symBinAddr: 0x1000028C2, symSize: 0xE }
  - { offset: 0xE7E1, size: 0x8, addend: 0x0, symName: __ZSt7forwardISt5tupleIJRKcEEEOT_RNSt16remove_referenceIS4_E4typeE, symObjAddr: 0x1798, symBinAddr: 0x1000028D0, symSize: 0xE }
  - { offset: 0xE84F, size: 0x8, addend: 0x0, symName: __ZNSt11_Tuple_implILm0EJRKcEEC2ES1_, symObjAddr: 0x1764, symBinAddr: 0x10000289C, symSize: 0x26 }
  - { offset: 0xE857, size: 0x8, addend: 0x0, symName: __ZSt7forwardIRKSt21piecewise_construct_tEOT_RNSt16remove_referenceIS3_E4typeE, symObjAddr: 0x178A, symBinAddr: 0x1000028C2, symSize: 0xE }
  - { offset: 0xE885, size: 0x8, addend: 0x0, symName: __ZNKSt10_HashtableIcSt4pairIKcjESaIS2_ENSt8__detail10_Select1stESt8equal_toIcESt4hashIcENS4_18_Mod_range_hashingENS4_20_Default_ranged_hashENS4_20_Prime_rehash_policyENS4_17_Hashtable_traitsILb0ELb0ELb1EEEE19_M_find_before_nodeEmRS1_m, symObjAddr: 0x168A, symBinAddr: 0x1000027C2, symSize: 0xDA }
  - { offset: 0xE92A, size: 0x8, addend: 0x0, symName: __ZNKSt8__detail15_Hash_code_baseIcSt4pairIKcjENS_10_Select1stESt4hashIcENS_18_Mod_range_hashingENS_20_Default_ranged_hashELb0EE15_M_bucket_indexEmm, symObjAddr: 0x165C, symBinAddr: 0x100002794, symSize: 0x2E }
  - { offset: 0xE981, size: 0x8, addend: 0x0, symName: __ZNKSt8__detail15_Hash_code_baseIcSt4pairIKcjENS_10_Select1stESt4hashIcENS_18_Mod_range_hashingENS_20_Default_ranged_hashELb0EE7_M_hashEv, symObjAddr: 0x1642, symBinAddr: 0x10000277A, symSize: 0x1A }
  - { offset: 0xE989, size: 0x8, addend: 0x0, symName: __ZNKSt8__detail15_Hash_code_baseIcSt4pairIKcjENS_10_Select1stESt4hashIcENS_18_Mod_range_hashingENS_20_Default_ranged_hashELb0EE15_M_bucket_indexEmm, symObjAddr: 0x165C, symBinAddr: 0x100002794, symSize: 0x2E }
  - { offset: 0xE9C3, size: 0x8, addend: 0x0, symName: __ZNKSt8__detail10_Select1stclIRKSt4pairIKcjEEEONS0_10__1st_typeIT_E4typeEOS8_, symObjAddr: 0x1624, symBinAddr: 0x10000275C, symSize: 0x1E }
  - { offset: 0xE9CB, size: 0x8, addend: 0x0, symName: __ZNKSt8__detail15_Hash_code_baseIcSt4pairIKcjENS_10_Select1stESt4hashIcENS_18_Mod_range_hashingENS_20_Default_ranged_hashELb0EE7_M_hashEv, symObjAddr: 0x1642, symBinAddr: 0x10000277A, symSize: 0x1A }
  - { offset: 0xEA12, size: 0x8, addend: 0x0, symName: __ZNKSt8__detail21_Hash_node_value_baseISt4pairIKcjEE4_M_vEv, symObjAddr: 0x160A, symBinAddr: 0x100002742, symSize: 0x1A }
  - { offset: 0xEA1A, size: 0x8, addend: 0x0, symName: __ZNKSt8__detail10_Select1stclIRKSt4pairIKcjEEEONS0_10__1st_typeIT_E4typeEOS8_, symObjAddr: 0x1624, symBinAddr: 0x10000275C, symSize: 0x1E }
  - { offset: 0xEA6F, size: 0x8, addend: 0x0, symName: __ZNSt8__detail20_Node_const_iteratorISt4pairIKcjELb0ELb0EEC1EPNS_10_Hash_nodeIS3_Lb0EEE, symObjAddr: 0x15E4, symBinAddr: 0x10000271C, symSize: 0x26 }
  - { offset: 0xEA77, size: 0x8, addend: 0x0, symName: __ZNKSt8__detail21_Hash_node_value_baseISt4pairIKcjEE4_M_vEv, symObjAddr: 0x160A, symBinAddr: 0x100002742, symSize: 0x1A }
  - { offset: 0xEAA5, size: 0x8, addend: 0x0, symName: __ZNKSt8__detail15_Hashtable_baseIcSt4pairIKcjENS_10_Select1stESt8equal_toIcESt4hashIcENS_18_Mod_range_hashingENS_20_Default_ranged_hashENS_17_Hashtable_traitsILb0ELb0ELb1EEEE13_M_key_equalsERS2_RKNS_16_Hash_node_valueIS3_Lb0EEE, symObjAddr: 0x158A, symBinAddr: 0x1000026C2, symSize: 0x5A }
  - { offset: 0xEAAD, size: 0x8, addend: 0x0, symName: __ZNSt8__detail20_Node_const_iteratorISt4pairIKcjELb0ELb0EEC1EPNS_10_Hash_nodeIS3_Lb0EEE, symObjAddr: 0x15E4, symBinAddr: 0x10000271C, symSize: 0x26 }
  - { offset: 0xEAFD, size: 0x8, addend: 0x0, symName: __ZNKSt10_HashtableIcSt4pairIKcjESaIS2_ENSt8__detail10_Select1stESt8equal_toIcESt4hashIcENS4_18_Mod_range_hashingENS4_20_Default_ranged_hashENS4_20_Prime_rehash_policyENS4_17_Hashtable_traitsILb0ELb0ELb1EEEE3endEv, symObjAddr: 0x1566, symBinAddr: 0x10000269E, symSize: 0x24 }
  - { offset: 0xEB2C, size: 0x8, addend: 0x0, symName: __ZNKSt10_HashtableIcSt4pairIKcjESaIS2_ENSt8__detail10_Select1stESt8equal_toIcESt4hashIcENS4_18_Mod_range_hashingENS4_20_Default_ranged_hashENS4_20_Prime_rehash_policyENS4_17_Hashtable_traitsILb0ELb0ELb1EEEE5beginEv, symObjAddr: 0x1536, symBinAddr: 0x10000266E, symSize: 0x30 }
  - { offset: 0xEB34, size: 0x8, addend: 0x0, symName: __ZNKSt10_HashtableIcSt4pairIKcjESaIS2_ENSt8__detail10_Select1stESt8equal_toIcESt4hashIcENS4_18_Mod_range_hashingENS4_20_Default_ranged_hashENS4_20_Prime_rehash_policyENS4_17_Hashtable_traitsILb0ELb0ELb1EEEE3endEv, symObjAddr: 0x1566, symBinAddr: 0x10000269E, symSize: 0x24 }
  - { offset: 0xEB5B, size: 0x8, addend: 0x0, symName: __ZNSt10_HashtableIcSt4pairIKcjESaIS2_ENSt8__detail10_Select1stESt8equal_toIcESt4hashIcENS4_18_Mod_range_hashingENS4_20_Default_ranged_hashENS4_20_Prime_rehash_policyENS4_17_Hashtable_traitsILb0ELb0ELb1EEEE22__small_size_thresholdEv, symObjAddr: 0x152A, symBinAddr: 0x100002662, symSize: 0xC }
  - { offset: 0xEB78, size: 0x8, addend: 0x0, symName: __ZNSt8__detail16_Hashtable_allocISaINS_10_Hash_nodeISt4pairIKcjELb0EEEEE21_M_deallocate_bucketsEPPNS_15_Hash_node_baseEm, symObjAddr: 0x14B4, symBinAddr: 0x1000025EC, symSize: 0x76 }
  - { offset: 0xEB80, size: 0x8, addend: 0x0, symName: __ZNSt10_HashtableIcSt4pairIKcjESaIS2_ENSt8__detail10_Select1stESt8equal_toIcESt4hashIcENS4_18_Mod_range_hashingENS4_20_Default_ranged_hashENS4_20_Prime_rehash_policyENS4_17_Hashtable_traitsILb0ELb0ELb1EEEE22__small_size_thresholdEv, symObjAddr: 0x152A, symBinAddr: 0x100002662, symSize: 0xC }
  - { offset: 0xECAD, size: 0x8, addend: 0x0, symName: __ZNKSt10_HashtableIcSt4pairIKcjESaIS2_ENSt8__detail10_Select1stESt8equal_toIcESt4hashIcENS4_18_Mod_range_hashingENS4_20_Default_ranged_hashENS4_20_Prime_rehash_policyENS4_17_Hashtable_traitsILb0ELb0ELb1EEEE21_M_uses_single_bucketEPPNS4_15_Hash_node_baseE, symObjAddr: 0x148E, symBinAddr: 0x1000025C6, symSize: 0x26 }
  - { offset: 0xECB5, size: 0x8, addend: 0x0, symName: __ZNSt8__detail16_Hashtable_allocISaINS_10_Hash_nodeISt4pairIKcjELb0EEEEE21_M_deallocate_bucketsEPPNS_15_Hash_node_baseEm, symObjAddr: 0x14B4, symBinAddr: 0x1000025EC, symSize: 0x76 }
  - { offset: 0xECF0, size: 0x8, addend: 0x0, symName: __ZNSt8__detail16_Hashtable_allocISaINS_10_Hash_nodeISt4pairIKcjELb0EEEEE18_M_deallocate_nodeEPS5_, symObjAddr: 0x142A, symBinAddr: 0x100002562, symSize: 0x64 }
  - { offset: 0xECF8, size: 0x8, addend: 0x0, symName: __ZNKSt10_HashtableIcSt4pairIKcjESaIS2_ENSt8__detail10_Select1stESt8equal_toIcESt4hashIcENS4_18_Mod_range_hashingENS4_20_Default_ranged_hashENS4_20_Prime_rehash_policyENS4_17_Hashtable_traitsILb0ELb0ELb1EEEE21_M_uses_single_bucketEPPNS4_15_Hash_node_baseE, symObjAddr: 0x148E, symBinAddr: 0x1000025C6, symSize: 0x26 }
  - { offset: 0xED99, size: 0x8, addend: 0x0, symName: __ZN9__gnu_cxx16__aligned_bufferISt4pairIKcjEE6_M_ptrEv, symObjAddr: 0x1410, symBinAddr: 0x100002548, symSize: 0x1A }
  - { offset: 0xEDA1, size: 0x8, addend: 0x0, symName: __ZNSt8__detail16_Hashtable_allocISaINS_10_Hash_nodeISt4pairIKcjELb0EEEEE18_M_deallocate_nodeEPS5_, symObjAddr: 0x142A, symBinAddr: 0x100002562, symSize: 0x64 }
  - { offset: 0xEDF6, size: 0x8, addend: 0x0, symName: __ZNSt8__detail19_Node_iterator_baseISt4pairIKcjELb0EEC2EPNS_10_Hash_nodeIS3_Lb0EEE, symObjAddr: 0x13F6, symBinAddr: 0x10000252E, symSize: 0x1A }
  - { offset: 0xEDFE, size: 0x8, addend: 0x0, symName: __ZN9__gnu_cxx16__aligned_bufferISt4pairIKcjEE6_M_ptrEv, symObjAddr: 0x1410, symBinAddr: 0x100002548, symSize: 0x1A }
  - { offset: 0xEEA6, size: 0x8, addend: 0x0, symName: __ZNSt10_HashtableIcSt4pairIKcjESaIS2_ENSt8__detail10_Select1stESt8equal_toIcESt4hashIcENS4_18_Mod_range_hashingENS4_20_Default_ranged_hashENS4_20_Prime_rehash_policyENS4_17_Hashtable_traitsILb0ELb0ELb1EEEE8_M_eraseESt17integral_constantIbLb1EERS1_, symObjAddr: 0x12F0, symBinAddr: 0x100002428, symSize: 0x106 }
  - { offset: 0xEF59, size: 0x8, addend: 0x0, symName: __ZNKSt8__detail14_Node_iteratorISt4pairIKcjELb0ELb0EEptEv, symObjAddr: 0x12CE, symBinAddr: 0x100002406, symSize: 0x22 }
  - { offset: 0xEF88, size: 0x8, addend: 0x0, symName: __ZNSt10_HashtableIcSt4pairIKcjESaIS2_ENSt8__detail10_Select1stESt8equal_toIcESt4hashIcENS4_18_Mod_range_hashingENS4_20_Default_ranged_hashENS4_20_Prime_rehash_policyENS4_17_Hashtable_traitsILb0ELb0ELb1EEEE21_M_insert_unique_nodeEmmPNS4_10_Hash_nodeIS2_Lb0EEEm, symObjAddr: 0x11D0, symBinAddr: 0x100002308, symSize: 0xFE }
  - { offset: 0xF05F, size: 0x8, addend: 0x0, symName: __ZNSt10_HashtableIcSt4pairIKcjESaIS2_ENSt8__detail10_Select1stESt8equal_toIcESt4hashIcENS4_18_Mod_range_hashingENS4_20_Default_ranged_hashENS4_20_Prime_rehash_policyENS4_17_Hashtable_traitsILb0ELb0ELb1EEEE12_Scoped_nodeD1Ev, symObjAddr: 0x119A, symBinAddr: 0x1000022D2, symSize: 0x36 }
  - { offset: 0xF067, size: 0x8, addend: 0x0, symName: __ZNSt10_HashtableIcSt4pairIKcjESaIS2_ENSt8__detail10_Select1stESt8equal_toIcESt4hashIcENS4_18_Mod_range_hashingENS4_20_Default_ranged_hashENS4_20_Prime_rehash_policyENS4_17_Hashtable_traitsILb0ELb0ELb1EEEE21_M_insert_unique_nodeEmmPNS4_10_Hash_nodeIS2_Lb0EEEm, symObjAddr: 0x11D0, symBinAddr: 0x100002308, symSize: 0xFE }
  - { offset: 0xF0F9, size: 0x8, addend: 0x0, symName: __ZNSt10_HashtableIcSt4pairIKcjESaIS2_ENSt8__detail10_Select1stESt8equal_toIcESt4hashIcENS4_18_Mod_range_hashingENS4_20_Default_ranged_hashENS4_20_Prime_rehash_policyENS4_17_Hashtable_traitsILb0ELb0ELb1EEEE12_Scoped_nodeC1IJRKSt21piecewise_construct_tSt5tupleIJRS1_EESL_IJEEEEEPNS4_16_Hashtable_allocISaINS4_10_Hash_nodeIS2_Lb0EEEEEEDpOT_, symObjAddr: 0x111A, symBinAddr: 0x100002252, symSize: 0x80 }
  - { offset: 0xF1BA, size: 0x8, addend: 0x0, symName: __ZNSt5tupleIJRKcEEC1ILb1ELb1EEES1_, symObjAddr: 0x10F4, symBinAddr: 0x10000222C, symSize: 0x26 }
  - { offset: 0xF1C2, size: 0x8, addend: 0x0, symName: __ZNSt10_HashtableIcSt4pairIKcjESaIS2_ENSt8__detail10_Select1stESt8equal_toIcESt4hashIcENS4_18_Mod_range_hashingENS4_20_Default_ranged_hashENS4_20_Prime_rehash_policyENS4_17_Hashtable_traitsILb0ELb0ELb1EEEE12_Scoped_nodeC1IJRKSt21piecewise_construct_tSt5tupleIJRS1_EESL_IJEEEEEPNS4_16_Hashtable_allocISaINS4_10_Hash_nodeIS2_Lb0EEEEEEDpOT_, symObjAddr: 0x111A, symBinAddr: 0x100002252, symSize: 0x80 }
  - { offset: 0xF1FF, size: 0x8, addend: 0x0, symName: __ZNKSt10_HashtableIcSt4pairIKcjESaIS2_ENSt8__detail10_Select1stESt8equal_toIcESt4hashIcENS4_18_Mod_range_hashingENS4_20_Default_ranged_hashENS4_20_Prime_rehash_policyENS4_17_Hashtable_traitsILb0ELb0ELb1EEEE12_M_find_nodeEmRS1_m, symObjAddr: 0x10A8, symBinAddr: 0x1000021E0, symSize: 0x4C }
  - { offset: 0xF27E, size: 0x8, addend: 0x0, symName: __ZNKSt10_HashtableIcSt4pairIKcjESaIS2_ENSt8__detail10_Select1stESt8equal_toIcESt4hashIcENS4_18_Mod_range_hashingENS4_20_Default_ranged_hashENS4_20_Prime_rehash_policyENS4_17_Hashtable_traitsILb0ELb0ELb1EEEE15_M_bucket_indexEm, symObjAddr: 0x107A, symBinAddr: 0x1000021B2, symSize: 0x2E }
  - { offset: 0xF2C1, size: 0x8, addend: 0x0, symName: __ZNKSt8__detail15_Hash_code_baseIcSt4pairIKcjENS_10_Select1stESt4hashIcENS_18_Mod_range_hashingENS_20_Default_ranged_hashELb0EE12_M_hash_codeERS2_, symObjAddr: 0x1044, symBinAddr: 0x10000217C, symSize: 0x36 }
  - { offset: 0xF304, size: 0x8, addend: 0x0, symName: __ZNSt8__detail20_Node_const_iteratorISt4pairIKcjELb0ELb0EEppEv, symObjAddr: 0x1026, symBinAddr: 0x10000215E, symSize: 0x1E }
  - { offset: 0xF30C, size: 0x8, addend: 0x0, symName: __ZNKSt8__detail15_Hash_code_baseIcSt4pairIKcjENS_10_Select1stESt4hashIcENS_18_Mod_range_hashingENS_20_Default_ranged_hashELb0EE12_M_hash_codeERS2_, symObjAddr: 0x1044, symBinAddr: 0x10000217C, symSize: 0x36 }
  - { offset: 0xF333, size: 0x8, addend: 0x0, symName: __ZNKSt10_HashtableIcSt4pairIKcjESaIS2_ENSt8__detail10_Select1stESt8equal_toIcESt4hashIcENS4_18_Mod_range_hashingENS4_20_Default_ranged_hashENS4_20_Prime_rehash_policyENS4_17_Hashtable_traitsILb0ELb0ELb1EEEE4findERS1_, symObjAddr: 0xF1A, symBinAddr: 0x100002052, symSize: 0x10C }
  - { offset: 0xF33B, size: 0x8, addend: 0x0, symName: __ZNSt8__detail20_Node_const_iteratorISt4pairIKcjELb0ELb0EEppEv, symObjAddr: 0x1026, symBinAddr: 0x10000215E, symSize: 0x1E }
  - { offset: 0xF3C7, size: 0x8, addend: 0x0, symName: __ZNSt10_HashtableIcSt4pairIKcjESaIS2_ENSt8__detail10_Select1stESt8equal_toIcESt4hashIcENS4_18_Mod_range_hashingENS4_20_Default_ranged_hashENS4_20_Prime_rehash_policyENS4_17_Hashtable_traitsILb0ELb0ELb1EEEE21_M_deallocate_bucketsEPPNS4_15_Hash_node_baseEm, symObjAddr: 0xED2, symBinAddr: 0x10000200A, symSize: 0x48 }
  - { offset: 0xF41E, size: 0x8, addend: 0x0, symName: __ZNSt8__detail16_Hashtable_allocISaINS_10_Hash_nodeISt4pairIKcjELb0EEEEE19_M_deallocate_nodesEPS5_, symObjAddr: 0xE8A, symBinAddr: 0x100001FC2, symSize: 0x48 }
  - { offset: 0xF426, size: 0x8, addend: 0x0, symName: __ZNSt10_HashtableIcSt4pairIKcjESaIS2_ENSt8__detail10_Select1stESt8equal_toIcESt4hashIcENS4_18_Mod_range_hashingENS4_20_Default_ranged_hashENS4_20_Prime_rehash_policyENS4_17_Hashtable_traitsILb0ELb0ELb1EEEE21_M_deallocate_bucketsEPPNS4_15_Hash_node_baseEm, symObjAddr: 0xED2, symBinAddr: 0x10000200A, symSize: 0x48 }
  - { offset: 0xF4A0, size: 0x8, addend: 0x0, symName: __ZNSt8__detail21_Hash_node_value_baseISt4pairIKcjEE9_M_valptrEv, symObjAddr: 0xE70, symBinAddr: 0x100001FA8, symSize: 0x1A }
  - { offset: 0xF4A8, size: 0x8, addend: 0x0, symName: __ZNSt8__detail16_Hashtable_allocISaINS_10_Hash_nodeISt4pairIKcjELb0EEEEE19_M_deallocate_nodesEPS5_, symObjAddr: 0xE8A, symBinAddr: 0x100001FC2, symSize: 0x48 }
  - { offset: 0xF4CF, size: 0x8, addend: 0x0, symName: __ZNKSt8__detail10_Hash_nodeISt4pairIKcjELb0EE7_M_nextEv, symObjAddr: 0xE5E, symBinAddr: 0x100001F96, symSize: 0x12 }
  - { offset: 0xF52C, size: 0x8, addend: 0x0, symName: __ZNSt8__detail14_Node_iteratorISt4pairIKcjELb0ELb0EEC1EPNS_10_Hash_nodeIS3_Lb0EEE, symObjAddr: 0xE38, symBinAddr: 0x100001F70, symSize: 0x26 }
  - { offset: 0xF534, size: 0x8, addend: 0x0, symName: __ZNKSt8__detail10_Hash_nodeISt4pairIKcjELb0EE7_M_nextEv, symObjAddr: 0xE5E, symBinAddr: 0x100001F96, symSize: 0x12 }
  - { offset: 0xF562, size: 0x8, addend: 0x0, symName: __ZNKSt10_HashtableIcSt4pairIKcjESaIS2_ENSt8__detail10_Select1stESt8equal_toIcESt4hashIcENS4_18_Mod_range_hashingENS4_20_Default_ranged_hashENS4_20_Prime_rehash_policyENS4_17_Hashtable_traitsILb0ELb0ELb1EEEE8_M_beginEv, symObjAddr: 0xE26, symBinAddr: 0x100001F5E, symSize: 0x12 }
  - { offset: 0xF56A, size: 0x8, addend: 0x0, symName: __ZNSt8__detail14_Node_iteratorISt4pairIKcjELb0ELb0EEC1EPNS_10_Hash_nodeIS3_Lb0EEE, symObjAddr: 0xE38, symBinAddr: 0x100001F70, symSize: 0x26 }
  - { offset: 0xF5EE, size: 0x8, addend: 0x0, symName: __ZNKSt10_HashtableIcSt4pairIKcjESaIS2_ENSt8__detail10_Select1stESt8equal_toIcESt4hashIcENS4_18_Mod_range_hashingENS4_20_Default_ranged_hashENS4_20_Prime_rehash_policyENS4_17_Hashtable_traitsILb0ELb0ELb1EEEE4sizeEv, symObjAddr: 0xE14, symBinAddr: 0x100001F4C, symSize: 0x12 }
  - { offset: 0xF5F6, size: 0x8, addend: 0x0, symName: __ZNKSt10_HashtableIcSt4pairIKcjESaIS2_ENSt8__detail10_Select1stESt8equal_toIcESt4hashIcENS4_18_Mod_range_hashingENS4_20_Default_ranged_hashENS4_20_Prime_rehash_policyENS4_17_Hashtable_traitsILb0ELb0ELb1EEEE8_M_beginEv, symObjAddr: 0xE26, symBinAddr: 0x100001F5E, symSize: 0x12 }
  - { offset: 0xF61D, size: 0x8, addend: 0x0, symName: __ZNSt10_HashtableIcSt4pairIKcjESaIS2_ENSt8__detail10_Select1stESt8equal_toIcESt4hashIcENS4_18_Mod_range_hashingENS4_20_Default_ranged_hashENS4_20_Prime_rehash_policyENS4_17_Hashtable_traitsILb0ELb0ELb1EEEE5eraseERS1_, symObjAddr: 0xDEE, symBinAddr: 0x100001F26, symSize: 0x26 }
  - { offset: 0xF660, size: 0x8, addend: 0x0, symName: __ZNSt8__detail9_Map_baseIcSt4pairIKcjESaIS3_ENS_10_Select1stESt8equal_toIcESt4hashIcENS_18_Mod_range_hashingENS_20_Default_ranged_hashENS_20_Prime_rehash_policyENS_17_Hashtable_traitsILb0ELb0ELb1EEELb1EEixERS2_, symObjAddr: 0xCC4, symBinAddr: 0x100001DFC, symSize: 0x12A }
  - { offset: 0xF73B, size: 0x8, addend: 0x0, symName: __ZNKSt10_HashtableIcSt4pairIKcjESaIS2_ENSt8__detail10_Select1stESt8equal_toIcESt4hashIcENS4_18_Mod_range_hashingENS4_20_Default_ranged_hashENS4_20_Prime_rehash_policyENS4_17_Hashtable_traitsILb0ELb0ELb1EEEE5countERS1_, symObjAddr: 0xC86, symBinAddr: 0x100001DBE, symSize: 0x3E }
  - { offset: 0xF743, size: 0x8, addend: 0x0, symName: __ZNSt8__detail9_Map_baseIcSt4pairIKcjESaIS3_ENS_10_Select1stESt8equal_toIcESt4hashIcENS_18_Mod_range_hashingENS_20_Default_ranged_hashENS_20_Prime_rehash_policyENS_17_Hashtable_traitsILb0ELb0ELb1EEELb1EEixERS2_, symObjAddr: 0xCC4, symBinAddr: 0x100001DFC, symSize: 0x12A }
  - { offset: 0xF7B6, size: 0x8, addend: 0x0, symName: __ZNSt10_HashtableIcSt4pairIKcjESaIS2_ENSt8__detail10_Select1stESt8equal_toIcESt4hashIcENS4_18_Mod_range_hashingENS4_20_Default_ranged_hashENS4_20_Prime_rehash_policyENS4_17_Hashtable_traitsILb0ELb0ELb1EEEE21_M_deallocate_bucketsEv, symObjAddr: 0xC58, symBinAddr: 0x100001D90, symSize: 0x2E }
  - { offset: 0xF7E5, size: 0x8, addend: 0x0, symName: __ZNSt10_HashtableIcSt4pairIKcjESaIS2_ENSt8__detail10_Select1stESt8equal_toIcESt4hashIcENS4_18_Mod_range_hashingENS4_20_Default_ranged_hashENS4_20_Prime_rehash_policyENS4_17_Hashtable_traitsILb0ELb0ELb1EEEE5clearEv, symObjAddr: 0xBEE, symBinAddr: 0x100001D26, symSize: 0x6A }
  - { offset: 0xF83F, size: 0x8, addend: 0x0, symName: __ZNSt15__new_allocatorINSt8__detail10_Hash_nodeISt4pairIKcjELb0EEEED2Ev, symObjAddr: 0xBE2, symBinAddr: 0x100001D1A, symSize: 0xC }
  - { offset: 0xF882, size: 0x8, addend: 0x0, symName: __ZNSt8__detail21_Hash_node_value_baseISt4pairIKcjEE4_M_vEv, symObjAddr: 0xBC8, symBinAddr: 0x100001D00, symSize: 0x1A }
  - { offset: 0xF88A, size: 0x8, addend: 0x0, symName: __ZNSt15__new_allocatorINSt8__detail10_Hash_nodeISt4pairIKcjELb0EEEED2Ev, symObjAddr: 0xBE2, symBinAddr: 0x100001D1A, symSize: 0xC }
  - { offset: 0xF8B1, size: 0x8, addend: 0x0, symName: __ZNSt8__detail19_Node_iterator_baseISt4pairIKcjELb0EE7_M_incrEv, symObjAddr: 0xBA2, symBinAddr: 0x100001CDA, symSize: 0x26 }
  - { offset: 0xF8E0, size: 0x8, addend: 0x0, symName: __ZNSt10_HashtableIcSt4pairIKcjESaIS2_ENSt8__detail10_Select1stESt8equal_toIcESt4hashIcENS4_18_Mod_range_hashingENS4_20_Default_ranged_hashENS4_20_Prime_rehash_policyENS4_17_Hashtable_traitsILb0ELb0ELb1EEEE3endEv, symObjAddr: 0xB7E, symBinAddr: 0x100001CB6, symSize: 0x24 }
  - { offset: 0xF90F, size: 0x8, addend: 0x0, symName: __ZNSt10_HashtableIcSt4pairIKcjESaIS2_ENSt8__detail10_Select1stESt8equal_toIcESt4hashIcENS4_18_Mod_range_hashingENS4_20_Default_ranged_hashENS4_20_Prime_rehash_policyENS4_17_Hashtable_traitsILb0ELb0ELb1EEEE5beginEv, symObjAddr: 0xB4E, symBinAddr: 0x100001C86, symSize: 0x30 }
  - { offset: 0xF917, size: 0x8, addend: 0x0, symName: __ZNSt10_HashtableIcSt4pairIKcjESaIS2_ENSt8__detail10_Select1stESt8equal_toIcESt4hashIcENS4_18_Mod_range_hashingENS4_20_Default_ranged_hashENS4_20_Prime_rehash_policyENS4_17_Hashtable_traitsILb0ELb0ELb1EEEE3endEv, symObjAddr: 0xB7E, symBinAddr: 0x100001CB6, symSize: 0x24 }
  - { offset: 0xF93E, size: 0x8, addend: 0x0, symName: __ZNSt7__cxx1112basic_stringIcSt11char_traitsIcESaIcEE12_M_constructIPKcEEvT_S8_St20forward_iterator_tag, symObjAddr: 0xA50, symBinAddr: 0x100001B88, symSize: 0xFE }
  - { offset: 0xF946, size: 0x8, addend: 0x0, symName: __ZNSt10_HashtableIcSt4pairIKcjESaIS2_ENSt8__detail10_Select1stESt8equal_toIcESt4hashIcENS4_18_Mod_range_hashingENS4_20_Default_ranged_hashENS4_20_Prime_rehash_policyENS4_17_Hashtable_traitsILb0ELb0ELb1EEEE5beginEv, symObjAddr: 0xB4E, symBinAddr: 0x100001C86, symSize: 0x30 }
  - { offset: 0xFA7F, size: 0x8, addend: 0x0, symName: __ZZNSt7__cxx1112basic_stringIcSt11char_traitsIcESaIcEE12_M_constructIPKcEEvT_S8_St20forward_iterator_tagEN6_GuardC1EPS4_, symObjAddr: 0xA0C, symBinAddr: 0x100001B44, symSize: 0x1A }
  - { offset: 0xFA87, size: 0x8, addend: 0x0, symName: __ZZNSt7__cxx1112basic_stringIcSt11char_traitsIcESaIcEE12_M_constructIPKcEEvT_S8_St20forward_iterator_tagEN6_GuardD1Ev, symObjAddr: 0xA26, symBinAddr: 0x100001B5E, symSize: 0x2A }
  - { offset: 0xFAB9, size: 0x8, addend: 0x0, symName: __ZZNSt7__cxx1112basic_stringIcSt11char_traitsIcESaIcEE12_M_constructIPKcEEvT_S8_St20forward_iterator_tagEN6_GuardD1Ev, symObjAddr: 0xA26, symBinAddr: 0x100001B5E, symSize: 0x2A }
  - { offset: 0xFAC1, size: 0x8, addend: 0x0, symName: __ZNSt7__cxx1112basic_stringIcSt11char_traitsIcESaIcEE12_M_constructIPKcEEvT_S8_St20forward_iterator_tag, symObjAddr: 0xA50, symBinAddr: 0x100001B88, symSize: 0xFE }
  - { offset: 0xFBDE, size: 0x8, addend: 0x0, symName: __ZNSt15__new_allocatorIcED2Ev, symObjAddr: 0xA00, symBinAddr: 0x100001B38, symSize: 0xC }
  - { offset: 0xFC21, size: 0x8, addend: 0x0, symName: __ZN9__gnu_cxx11char_traitsIcE2eqERKcS3_, symObjAddr: 0x9DE, symBinAddr: 0x100001B16, symSize: 0x22 }
  - { offset: 0xFCB7, size: 0x8, addend: 0x0, symName: __ZNSt7__cxx1112basic_stringIcSt11char_traitsIcESaIcEEC1IS3_EEPKcRKS3_, symObjAddr: 0x93E, symBinAddr: 0x100001A76, symSize: 0xA0 }
  - { offset: 0xFCBF, size: 0x8, addend: 0x0, symName: __ZN9__gnu_cxx11char_traitsIcE2eqERKcS3_, symObjAddr: 0x9DE, symBinAddr: 0x100001B16, symSize: 0x22 }
  - { offset: 0xFD36, size: 0x8, addend: 0x0, symName: __ZNKSt13unordered_mapIcjSt4hashIcESt8equal_toIcESaISt4pairIKcjEEE4sizeEv, symObjAddr: 0x924, symBinAddr: 0x100001A5C, symSize: 0x1A }
  - { offset: 0xFD3E, size: 0x8, addend: 0x0, symName: __ZNSt7__cxx1112basic_stringIcSt11char_traitsIcESaIcEEC1IS3_EEPKcRKS3_, symObjAddr: 0x93E, symBinAddr: 0x100001A76, symSize: 0xA0 }
  - { offset: 0xFD65, size: 0x8, addend: 0x0, symName: __ZNSt13unordered_mapIcjSt4hashIcESt8equal_toIcESaISt4pairIKcjEEE5eraseERS5_, symObjAddr: 0x8FE, symBinAddr: 0x100001A36, symSize: 0x26 }
  - { offset: 0xFDA8, size: 0x8, addend: 0x0, symName: __ZNSt13unordered_mapIcjSt4hashIcESt8equal_toIcESaISt4pairIKcjEEEixERS5_, symObjAddr: 0x8D8, symBinAddr: 0x100001A10, symSize: 0x26 }
  - { offset: 0xFDEB, size: 0x8, addend: 0x0, symName: __ZNKSt13unordered_mapIcjSt4hashIcESt8equal_toIcESaISt4pairIKcjEEE5countERS5_, symObjAddr: 0x8B2, symBinAddr: 0x1000019EA, symSize: 0x26 }
  - { offset: 0xFE59, size: 0x8, addend: 0x0, symName: __ZNSt10_HashtableIcSt4pairIKcjESaIS2_ENSt8__detail10_Select1stESt8equal_toIcESt4hashIcENS4_18_Mod_range_hashingENS4_20_Default_ranged_hashENS4_20_Prime_rehash_policyENS4_17_Hashtable_traitsILb0ELb0ELb1EEEED1Ev, symObjAddr: 0x87E, symBinAddr: 0x1000019B6, symSize: 0x34 }
  - { offset: 0xFEC7, size: 0x8, addend: 0x0, symName: __ZNSt8__detail21_Hashtable_ebo_helperILi0ESaINS_10_Hash_nodeISt4pairIKcjELb0EEEELb1EEC2Ev, symObjAddr: 0x860, symBinAddr: 0x100001998, symSize: 0x1E }
  - { offset: 0xFF5A, size: 0x8, addend: 0x0, symName: __ZNSt8__detail21_Hashtable_ebo_helperILi0ESt8equal_toIcELb1EEC2Ev, symObjAddr: 0x854, symBinAddr: 0x10000198C, symSize: 0xC }
  - { offset: 0xFFA1, size: 0x8, addend: 0x0, symName: __ZNSt8__detail21_Hashtable_ebo_helperILi1ESt4hashIcELb1EEC2Ev, symObjAddr: 0x848, symBinAddr: 0x100001980, symSize: 0xC }
  - { offset: 0x10013, size: 0x8, addend: 0x0, symName: __ZNSt4pairIcjEC1IKcjLb1EEERKS_IT_T0_E, symObjAddr: 0x81E, symBinAddr: 0x100001956, symSize: 0x2A }
  - { offset: 0x1001B, size: 0x8, addend: 0x0, symName: __ZNSt8__detail21_Hashtable_ebo_helperILi1ESt4hashIcELb1EEC2Ev, symObjAddr: 0x848, symBinAddr: 0x100001980, symSize: 0xC }
  - { offset: 0x10063, size: 0x8, addend: 0x0, symName: __ZNKSt8__detail14_Node_iteratorISt4pairIKcjELb0ELb0EEdeEv, symObjAddr: 0x7FC, symBinAddr: 0x100001934, symSize: 0x22 }
  - { offset: 0x10092, size: 0x8, addend: 0x0, symName: __ZNSt8__detail14_Node_iteratorISt4pairIKcjELb0ELb0EEppEv, symObjAddr: 0x7DE, symBinAddr: 0x100001916, symSize: 0x1E }
  - { offset: 0x1009A, size: 0x8, addend: 0x0, symName: __ZNKSt8__detail14_Node_iteratorISt4pairIKcjELb0ELb0EEdeEv, symObjAddr: 0x7FC, symBinAddr: 0x100001934, symSize: 0x22 }
  - { offset: 0x100CE, size: 0x8, addend: 0x0, symName: __ZNSt8__detailneERKNS_19_Node_iterator_baseISt4pairIKcjELb0EEES6_, symObjAddr: 0x7BC, symBinAddr: 0x1000018F4, symSize: 0x22 }
  - { offset: 0x100D6, size: 0x8, addend: 0x0, symName: __ZNSt8__detail14_Node_iteratorISt4pairIKcjELb0ELb0EEppEv, symObjAddr: 0x7DE, symBinAddr: 0x100001916, symSize: 0x1E }
  - { offset: 0x1011E, size: 0x8, addend: 0x0, symName: __ZNSt13unordered_mapIcjSt4hashIcESt8equal_toIcESaISt4pairIKcjEEE3endEv, symObjAddr: 0x7A2, symBinAddr: 0x1000018DA, symSize: 0x1A }
  - { offset: 0x10126, size: 0x8, addend: 0x0, symName: __ZNSt8__detailneERKNS_19_Node_iterator_baseISt4pairIKcjELb0EEES6_, symObjAddr: 0x7BC, symBinAddr: 0x1000018F4, symSize: 0x22 }
  - { offset: 0x1014D, size: 0x8, addend: 0x0, symName: __ZNSt13unordered_mapIcjSt4hashIcESt8equal_toIcESaISt4pairIKcjEEE5beginEv, symObjAddr: 0x788, symBinAddr: 0x1000018C0, symSize: 0x1A }
  - { offset: 0x10155, size: 0x8, addend: 0x0, symName: __ZNSt13unordered_mapIcjSt4hashIcESt8equal_toIcESaISt4pairIKcjEEE3endEv, symObjAddr: 0x7A2, symBinAddr: 0x1000018DA, symSize: 0x1A }
  - { offset: 0x101AB, size: 0x8, addend: 0x0, symName: __ZNSt7__cxx1112basic_stringIcSt11char_traitsIcESaIcEE12_Alloc_hiderD1Ev, symObjAddr: 0x764, symBinAddr: 0x10000189C, symSize: 0x24 }
  - { offset: 0x101B3, size: 0x8, addend: 0x0, symName: __ZNSt13unordered_mapIcjSt4hashIcESt8equal_toIcESaISt4pairIKcjEEE5beginEv, symObjAddr: 0x788, symBinAddr: 0x1000018C0, symSize: 0x1A }
  - { offset: 0x1023B, size: 0x8, addend: 0x0, symName: __ZN9__gnu_cxx11char_traitsIcE6lengthEPKc, symObjAddr: 0x71E, symBinAddr: 0x100001856, symSize: 0x46 }
  - { offset: 0x10243, size: 0x8, addend: 0x0, symName: __ZNSt7__cxx1112basic_stringIcSt11char_traitsIcESaIcEE12_Alloc_hiderD1Ev, symObjAddr: 0x764, symBinAddr: 0x10000189C, symSize: 0x24 }
  - { offset: 0x10288, size: 0x8, addend: 0x0, symName: _main, symObjAddr: 0x666, symBinAddr: 0x10000179E, symSize: 0xB8 }
  - { offset: 0x10290, size: 0x8, addend: 0x0, symName: __ZN9__gnu_cxx11char_traitsIcE6lengthEPKc, symObjAddr: 0x71E, symBinAddr: 0x100001856, symSize: 0x46 }
  - { offset: 0x10349, size: 0x8, addend: 0x0, symName: __ZN8Solution24lengthOfLongestSubstringENSt7__cxx1112basic_stringIcSt11char_traitsIcESaIcEEE, symObjAddr: 0x34A, symBinAddr: 0x100001482, symSize: 0x31C }
  - { offset: 0x10351, size: 0x8, addend: 0x0, symName: _main, symObjAddr: 0x666, symBinAddr: 0x10000179E, symSize: 0xB8 }
  - { offset: 0x10455, size: 0x8, addend: 0x0, symName: __ZNSt13unordered_mapIcjSt4hashIcESt8equal_toIcESaISt4pairIKcjEEED1Ev, symObjAddr: 0x32E, symBinAddr: 0x100001466, symSize: 0x1C }
  - { offset: 0x1049C, size: 0x8, addend: 0x0, symName: __ZNSt13unordered_mapIcjSt4hashIcESt8equal_toIcESaISt4pairIKcjEEEC1Ev, symObjAddr: 0x312, symBinAddr: 0x10000144A, symSize: 0x1C }
  - { offset: 0x104E3, size: 0x8, addend: 0x0, symName: __ZNSt10_HashtableIcSt4pairIKcjESaIS2_ENSt8__detail10_Select1stESt8equal_toIcESt4hashIcENS4_18_Mod_range_hashingENS4_20_Default_ranged_hashENS4_20_Prime_rehash_policyENS4_17_Hashtable_traitsILb0ELb0ELb1EEEEC1Ev, symObjAddr: 0x28E, symBinAddr: 0x1000013C6, symSize: 0x84 }
  - { offset: 0x104EB, size: 0x8, addend: 0x0, symName: __ZNSt13unordered_mapIcjSt4hashIcESt8equal_toIcESaISt4pairIKcjEEEC1Ev, symObjAddr: 0x312, symBinAddr: 0x10000144A, symSize: 0x1C }
  - { offset: 0x1053C, size: 0x8, addend: 0x0, symName: __ZNSt8__detail16_Hashtable_allocISaINS_10_Hash_nodeISt4pairIKcjELb0EEEEED2Ev, symObjAddr: 0x272, symBinAddr: 0x1000013AA, symSize: 0x1C }
  - { offset: 0x10583, size: 0x8, addend: 0x0, symName: __ZNSt8__detail16_Hashtable_allocISaINS_10_Hash_nodeISt4pairIKcjELb0EEEEEC2Ev, symObjAddr: 0x256, symBinAddr: 0x10000138E, symSize: 0x1C }
  - { offset: 0x105DC, size: 0x8, addend: 0x0, symName: __ZNSt8__detail21_Hashtable_ebo_helperILi0ESaINS_10_Hash_nodeISt4pairIKcjELb0EEEELb1EED2Ev, symObjAddr: 0x232, symBinAddr: 0x10000136A, symSize: 0x24 }
  - { offset: 0x105E4, size: 0x8, addend: 0x0, symName: __ZNSt8__detail16_Hashtable_allocISaINS_10_Hash_nodeISt4pairIKcjELb0EEEEEC2Ev, symObjAddr: 0x256, symBinAddr: 0x10000138E, symSize: 0x1C }
  - { offset: 0x10649, size: 0x8, addend: 0x0, symName: __ZNSt8__detail15_Hashtable_baseIcSt4pairIKcjENS_10_Select1stESt8equal_toIcESt4hashIcENS_18_Mod_range_hashingENS_20_Default_ranged_hashENS_17_Hashtable_traitsILb0ELb0ELb1EEEEC2Ev, symObjAddr: 0x20A, symBinAddr: 0x100001342, symSize: 0x28 }
  - { offset: 0x10690, size: 0x8, addend: 0x0, symName: __ZNSt8__detail15_Hash_code_baseIcSt4pairIKcjENS_10_Select1stESt4hashIcENS_18_Mod_range_hashingENS_20_Default_ranged_hashELb0EEC2Ev, symObjAddr: 0x1EE, symBinAddr: 0x100001326, symSize: 0x1C }
  - { offset: 0x106BA, size: 0x8, addend: 0x0, symName: __ZN8Solution8printMapERSt13unordered_mapIcjSt4hashIcESt8equal_toIcESaISt4pairIKcjEEE, symObjAddr: 0x118, symBinAddr: 0x100001250, symSize: 0xD6 }
  - { offset: 0x10757, size: 0x8, addend: 0x0, symName: __ZNSt8__detail20_Prime_rehash_policy8_M_resetEm, symObjAddr: 0xFC, symBinAddr: 0x100001234, symSize: 0x1C }
  - { offset: 0x1079A, size: 0x8, addend: 0x0, symName: __ZNKSt8__detail20_Prime_rehash_policy8_M_stateEv, symObjAddr: 0xEA, symBinAddr: 0x100001222, symSize: 0x12 }
  - { offset: 0x107A2, size: 0x8, addend: 0x0, symName: __ZNSt8__detail20_Prime_rehash_policy8_M_resetEm, symObjAddr: 0xFC, symBinAddr: 0x100001234, symSize: 0x1C }
  - { offset: 0x107F7, size: 0x8, addend: 0x0, symName: __ZNSt8__detail20_Prime_rehash_policyC1Ef, symObjAddr: 0xC0, symBinAddr: 0x1000011F8, symSize: 0x2A }
  - { offset: 0x1082D, size: 0x8, addend: 0x0, symName: __ZNKSt8__detail18_Mod_range_hashingclEmm, symObjAddr: 0x9E, symBinAddr: 0x1000011D6, symSize: 0x22 }
  - { offset: 0x10835, size: 0x8, addend: 0x0, symName: __ZNSt8__detail20_Prime_rehash_policyC1Ef, symObjAddr: 0xC0, symBinAddr: 0x1000011F8, symSize: 0x2A }
  - { offset: 0x108A1, size: 0x8, addend: 0x0, symName: __ZNSt8__detail15_Hash_node_baseC1Ev, symObjAddr: 0x88, symBinAddr: 0x1000011C0, symSize: 0x16 }
  - { offset: 0x108A9, size: 0x8, addend: 0x0, symName: __ZNKSt8__detail18_Mod_range_hashingclEmm, symObjAddr: 0x9E, symBinAddr: 0x1000011D6, symSize: 0x22 }
  - { offset: 0x108CF, size: 0x8, addend: 0x0, symName: __ZNSt8__detail15_Hash_node_baseC2Ev, symObjAddr: 0x72, symBinAddr: 0x1000011AA, symSize: 0x16 }
  - { offset: 0x108D7, size: 0x8, addend: 0x0, symName: __ZNSt8__detail15_Hash_node_baseC1Ev, symObjAddr: 0x88, symBinAddr: 0x1000011C0, symSize: 0x16 }
  - { offset: 0x108F9, size: 0x8, addend: 0x0, symName: __ZNKSt4hashIcEclEc, symObjAddr: 0x5E, symBinAddr: 0x100001196, symSize: 0x14 }
  - { offset: 0x10901, size: 0x8, addend: 0x0, symName: __ZNSt8__detail15_Hash_node_baseC2Ev, symObjAddr: 0x72, symBinAddr: 0x1000011AA, symSize: 0x16 }
  - { offset: 0x1093B, size: 0x8, addend: 0x0, symName: __ZNSt11char_traitsIcE6lengthEPKc, symObjAddr: 0x2C, symBinAddr: 0x100001164, symSize: 0x32 }
  - { offset: 0x10943, size: 0x8, addend: 0x0, symName: __ZNKSt4hashIcEclEc, symObjAddr: 0x5E, symBinAddr: 0x100001196, symSize: 0x14 }
  - { offset: 0x10972, size: 0x8, addend: 0x0, symName: __ZdlPvS_, symObjAddr: 0x1D, symBinAddr: 0x100001155, symSize: 0xF }
  - { offset: 0x1097A, size: 0x8, addend: 0x0, symName: __ZNSt11char_traitsIcE6lengthEPKc, symObjAddr: 0x2C, symBinAddr: 0x100001164, symSize: 0x32 }
  - { offset: 0x109B4, size: 0x8, addend: 0x0, symName: __ZnwmPv, symObjAddr: 0xB, symBinAddr: 0x100001143, symSize: 0x12 }
  - { offset: 0x109BC, size: 0x8, addend: 0x0, symName: __ZdlPvS_, symObjAddr: 0x1D, symBinAddr: 0x100001155, symSize: 0xF }
  - { offset: 0x109FF, size: 0x8, addend: 0x0, symName: __ZSt23__is_constant_evaluatedv, symObjAddr: 0x0, symBinAddr: 0x100001138, symSize: 0xB }
  - { offset: 0x10A07, size: 0x8, addend: 0x0, symName: __ZnwmPv, symObjAddr: 0xB, symBinAddr: 0x100001143, symSize: 0x12 }
...
